target datalayout = "e-m:e-p270:32:32-p271:32:32-p272:64:64-i64:64-i128:128-f80:128-n8:16:32:64-S128"
target triple = "x86_64-pc-linux-gnu"

%struct._object = type { %union.anon, ptr }
%union.anon = type { i64 }
%struct.PyVarObject = type { %struct._object, i64 }
%struct.PyListObject = type { %struct.PyVarObject, ptr, i64 }

@.str.11 = private unnamed_addr constant [3 x i8] c"[]\00", align 1
@.str.12 = private unnamed_addr constant [6 x i8] c"[...]\00", align 1

; Function Attrs: inlinehint nounwind uwtable
define internal i64 @Py_SIZE(ptr noundef %0) #2 {
  %2 = alloca ptr, align 8
  store ptr %0, ptr %2, align 8, !tbaa !36
  %3 = load ptr, ptr %2, align 8, !tbaa !36
  %4 = getelementptr inbounds nuw %struct.PyVarObject, ptr %3, i32 0, i32 1
  %5 = load i64, ptr %4, align 8, !tbaa !38
  ret i64 %5
}

; Function Attrs: nounwind uwtable
define internal ptr @list_repr_impl(ptr noundef %0) #0 {
  %2 = alloca ptr, align 8
  %3 = alloca ptr, align 8
  %4 = alloca i32, align 4
  %5 = alloca i32, align 4
  %6 = alloca i64, align 8
  %7 = alloca ptr, align 8
  %8 = alloca i64, align 8
  store ptr %0, ptr %3, align 8, !tbaa !27
  call void @llvm.lifetime.start.p0(i64 4, ptr %4) #8
  %9 = load ptr, ptr %3, align 8, !tbaa !27
  %10 = call i32 @Py_ReprEnter(ptr noundef %9)
  store i32 %10, ptr %4, align 4, !tbaa !118
  %11 = load i32, ptr %4, align 4, !tbaa !118
  %12 = icmp ne i32 %11, 0
  br i1 %12, label %13, label %21

13:                                               ; preds = %1
  %14 = load i32, ptr %4, align 4, !tbaa !118
  %15 = icmp sgt i32 %14, 0
  br i1 %15, label %16, label %18

16:                                               ; preds = %13
  %17 = call ptr @PyUnicode_FromString(ptr noundef @.str.12)
  br label %19

18:                                               ; preds = %13
  br label %19

19:                                               ; preds = %18, %16
  %20 = phi ptr [ %17, %16 ], [ null, %18 ]
  store ptr %20, ptr %2, align 8
  store i32 1, ptr %5, align 4
  br label %89

21:                                               ; preds = %1
  call void @llvm.lifetime.start.p0(i64 8, ptr %6) #8
  %22 = load ptr, ptr %3, align 8, !tbaa !27
  %23 = call i64 @Py_SIZE(ptr noundef %22)
  %24 = sub i64 %23, 1
  %25 = mul i64 3, %24
  %26 = add i64 2, %25
  %27 = add i64 %26, 1
  store i64 %27, ptr %6, align 8, !tbaa !26
  call void @llvm.lifetime.start.p0(i64 8, ptr %7) #8
  %28 = load i64, ptr %6, align 8, !tbaa !26
  %29 = call ptr @PyUnicodeWriter_Create(i64 noundef %28)
  store ptr %29, ptr %7, align 8, !tbaa !221
  %30 = load ptr, ptr %7, align 8, !tbaa !221
  %31 = icmp eq ptr %30, null
  br i1 %31, label %32, label %33

32:                                               ; preds = %21
  br label %85

33:                                               ; preds = %21
  %34 = load ptr, ptr %7, align 8, !tbaa !221
  %35 = call i32 @PyUnicodeWriter_WriteChar(ptr noundef %34, i32 noundef 91)
  %36 = icmp slt i32 %35, 0
  br i1 %36, label %37, label %38

37:                                               ; preds = %33
  br label %85

38:                                               ; preds = %33
  call void @llvm.lifetime.start.p0(i64 8, ptr %8) #8
  store i64 0, ptr %8, align 8, !tbaa !26
  br label %39

39:                                               ; preds = %71, %38
  %40 = load i64, ptr %8, align 8, !tbaa !26
  %41 = load ptr, ptr %3, align 8, !tbaa !27
  %42 = call i64 @Py_SIZE(ptr noundef %41)
  %43 = icmp slt i64 %40, %42
  br i1 %43, label %45, label %44

44:                                               ; preds = %39
  store i32 3, ptr %5, align 4
  br label %74

45:                                               ; preds = %39
  %46 = load i64, ptr %8, align 8, !tbaa !26
  %47 = icmp sgt i64 %46, 0
  br i1 %47, label %48, label %59

48:                                               ; preds = %45
  %49 = load ptr, ptr %7, align 8, !tbaa !221
  %50 = call i32 @PyUnicodeWriter_WriteChar(ptr noundef %49, i32 noundef 44)
  %51 = icmp slt i32 %50, 0
  br i1 %51, label %52, label %53

52:                                               ; preds = %48
  store i32 2, ptr %5, align 4
  br label %74

53:                                               ; preds = %48
  %54 = load ptr, ptr %7, align 8, !tbaa !221
  %55 = call i32 @PyUnicodeWriter_WriteChar(ptr noundef %54, i32 noundef 32)
  %56 = icmp slt i32 %55, 0
  br i1 %56, label %57, label %58

57:                                               ; preds = %53
  store i32 2, ptr %5, align 4
  br label %74

58:                                               ; preds = %53
  br label %59

59:                                               ; preds = %58, %45
  %60 = load ptr, ptr %7, align 8, !tbaa !221
  %61 = load ptr, ptr %3, align 8, !tbaa !27
  %62 = getelementptr inbounds nuw %struct.PyListObject, ptr %61, i32 0, i32 1
  %63 = load ptr, ptr %62, align 8, !tbaa !28
  %64 = load i64, ptr %8, align 8, !tbaa !26
  %65 = getelementptr ptr, ptr %63, i64 %64
  %66 = load ptr, ptr %65, align 8, !tbaa !36
  %67 = call i32 @PyUnicodeWriter_WriteRepr(ptr noundef %60, ptr noundef %66)
  %68 = icmp slt i32 %67, 0
  br i1 %68, label %69, label %70

69:                                               ; preds = %59
  store i32 2, ptr %5, align 4
  br label %74

70:                                               ; preds = %59
  br label %71

71:                                               ; preds = %70
  %72 = load i64, ptr %8, align 8, !tbaa !26
  %73 = add i64 %72, 1
  store i64 %73, ptr %8, align 8, !tbaa !26
  br label %39, !llvm.loop !223

74:                                               ; preds = %69, %57, %52, %44
  call void @llvm.lifetime.end.p0(i64 8, ptr %8) #8
  %75 = load i32, ptr %5, align 4
  switch i32 %75, label %88 [
    i32 3, label %76
    i32 2, label %85
  ]

76:                                               ; preds = %74
  %77 = load ptr, ptr %7, align 8, !tbaa !221
  %78 = call i32 @PyUnicodeWriter_WriteChar(ptr noundef %77, i32 noundef 93)
  %79 = icmp slt i32 %78, 0
  br i1 %79, label %80, label %81

80:                                               ; preds = %76
  br label %85

81:                                               ; preds = %76
  %82 = load ptr, ptr %3, align 8, !tbaa !27
  call void @Py_ReprLeave(ptr noundef %82)
  %83 = load ptr, ptr %7, align 8, !tbaa !221
  %84 = call ptr @PyUnicodeWriter_Finish(ptr noundef %83)
  store ptr %84, ptr %2, align 8
  store i32 1, ptr %5, align 4
  br label %88

85:                                               ; preds = %74, %80, %37, %32
  %86 = load ptr, ptr %7, align 8, !tbaa !221
  call void @PyUnicodeWriter_Discard(ptr noundef %86)
  %87 = load ptr, ptr %3, align 8, !tbaa !27
  call void @Py_ReprLeave(ptr noundef %87)
  store ptr null, ptr %2, align 8
  store i32 1, ptr %5, align 4
  br label %88

88:                                               ; preds = %85, %81, %74
  call void @llvm.lifetime.end.p0(i64 8, ptr %7) #8
  call void @llvm.lifetime.end.p0(i64 8, ptr %6) #8
  br label %89

89:                                               ; preds = %88, %19
  call void @llvm.lifetime.end.p0(i64 4, ptr %4) #8
  %90 = load ptr, ptr %2, align 8
  ret ptr %90
}

; Function Attrs: inlinehint nounwind uwtable
define internal i64 @PyList_GET_SIZE(ptr noundef %0) #2 {
  %2 = alloca ptr, align 8
  %3 = alloca ptr, align 8
  store ptr %0, ptr %2, align 8, !tbaa !36
  call void @llvm.lifetime.start.p0(i64 8, ptr %3) #8
  %4 = load ptr, ptr %2, align 8, !tbaa !36
  store ptr %4, ptr %3, align 8, !tbaa !27
  %5 = load ptr, ptr %3, align 8, !tbaa !27
  %6 = call i64 @Py_SIZE(ptr noundef %5)
  call void @llvm.lifetime.end.p0(i64 8, ptr %3) #8
  ret i64 %6
}

; Function Attrs: nounwind uwtable
define internal ptr @list_repr(ptr noundef %0) #0 {
  %2 = alloca ptr, align 8
  %3 = alloca ptr, align 8
  %4 = alloca ptr, align 8
  %5 = alloca ptr, align 8
  store ptr %0, ptr %3, align 8, !tbaa !36
  %6 = load ptr, ptr %3, align 8, !tbaa !36
  %7 = call i64 @PyList_GET_SIZE(ptr noundef %6)
  %8 = icmp eq i64 %7, 0
  br i1 %8, label %9, label %11

9:                                                ; preds = %1
  %10 = call ptr @PyUnicode_FromString(ptr noundef @.str.11)
  store ptr %10, ptr %2, align 8
  br label %16

11:                                               ; preds = %1
  call void @llvm.lifetime.start.p0(i64 8, ptr %4) #8
  %12 = load ptr, ptr %3, align 8, !tbaa !36
  store ptr %12, ptr %4, align 8, !tbaa !27
  call void @llvm.lifetime.start.p0(i64 8, ptr %5) #8
  store ptr null, ptr %5, align 8, !tbaa !36
  %13 = load ptr, ptr %4, align 8, !tbaa !27
  %14 = call ptr @list_repr_impl(ptr noundef %13)
  store ptr %14, ptr %5, align 8, !tbaa !36
  %15 = load ptr, ptr %5, align 8, !tbaa !36
  store ptr %15, ptr %2, align 8
  call void @llvm.lifetime.end.p0(i64 8, ptr %5) #8
  call void @llvm.lifetime.end.p0(i64 8, ptr %4) #8
  br label %16

16:                                               ; preds = %11, %9
  %17 = load ptr, ptr %2, align 8
  ret ptr %17
}