; Function Attrs: nounwind uwtable
define internal ptr @list_repr(ptr noundef %0) #0 {
  %2 = getelementptr i8, ptr %0, i64 16
  %.val = load i64, ptr %2, align 8, !tbaa !33
  %3 = icmp eq i64 %.val, 0
  br i1 %3, label %4, label %6

4:                                                ; preds = %1
  %5 = tail call ptr @PyUnicode_FromString(ptr noundef nonnull @.str.11) #12
  br label %list_repr_impl.exit

6:                                                ; preds = %1
  %7 = tail call i32 @Py_ReprEnter(ptr noundef nonnull %0) #12
  %.not.i = icmp eq i32 %7, 0
  br i1 %.not.i, label %12, label %8

8:                                                ; preds = %6
  %9 = icmp sgt i32 %7, 0
  br i1 %9, label %10, label %list_repr_impl.exit

10:                                               ; preds = %8
  %11 = tail call ptr @PyUnicode_FromString(ptr noundef nonnull @.str.12) #12
  br label %list_repr_impl.exit

12:                                               ; preds = %6
  %.val26.i = load i64, ptr %2, align 8, !tbaa !33
  %13 = mul i64 %.val26.i, 3
  %14 = tail call ptr @PyUnicodeWriter_Create(i64 noundef %13) #12
  %15 = icmp eq ptr %14, null
  br i1 %15, label %.thread.i, label %16

16:                                               ; preds = %12
  %17 = tail call i32 @PyUnicodeWriter_WriteChar(ptr noundef nonnull %14, i32 noundef 91) #12
  %18 = icmp slt i32 %17, 0
  br i1 %18, label %.thread.i, label %.preheader.i

.preheader.i:                                     ; preds = %16
  %.val31.i = load i64, ptr %2, align 8, !tbaa !33
  %19 = icmp sgt i64 %.val31.i, 0
  br i1 %19, label %.lr.ph.i, label %._crit_edge.i

.lr.ph.i:                                         ; preds = %.preheader.i
  %20 = getelementptr inbounds nuw i8, ptr %0, i64 24
  br label %24

21:                                               ; preds = %31
  %22 = add nuw nsw i64 %.032.i, 1
  %.val.i = load i64, ptr %2, align 8, !tbaa !33
  %23 = icmp slt i64 %22, %.val.i
  br i1 %23, label %24, label %._crit_edge.i, !llvm.loop !166

24:                                               ; preds = %21, %.lr.ph.i
  %.032.i = phi i64 [ 0, %.lr.ph.i ], [ %22, %21 ]
  %.not30.i = icmp eq i64 %.032.i, 0
  br i1 %.not30.i, label %31, label %25

25:                                               ; preds = %24
  %26 = tail call i32 @PyUnicodeWriter_WriteChar(ptr noundef nonnull %14, i32 noundef 44) #12
  %27 = icmp slt i32 %26, 0
  br i1 %27, label %.thread.i, label %28

28:                                               ; preds = %25
  %29 = tail call i32 @PyUnicodeWriter_WriteChar(ptr noundef nonnull %14, i32 noundef 32) #12
  %30 = icmp slt i32 %29, 0
  br i1 %30, label %.thread.i, label %31

31:                                               ; preds = %28, %24
  %32 = load ptr, ptr %20, align 8, !tbaa !27
  %33 = getelementptr ptr, ptr %32, i64 %.032.i
  %34 = load ptr, ptr %33, align 8, !tbaa !112
  %35 = tail call i32 @PyUnicodeWriter_WriteRepr(ptr noundef nonnull %14, ptr noundef %34) #12
  %36 = icmp slt i32 %35, 0
  br i1 %36, label %.thread.i, label %21

._crit_edge.i:                                    ; preds = %21, %.preheader.i
  %37 = tail call i32 @PyUnicodeWriter_WriteChar(ptr noundef nonnull %14, i32 noundef 93) #12
  %38 = icmp slt i32 %37, 0
  br i1 %38, label %.thread.i, label %39

39:                                               ; preds = %._crit_edge.i
  tail call void @Py_ReprLeave(ptr noundef nonnull %0) #12
  %40 = tail call ptr @PyUnicodeWriter_Finish(ptr noundef nonnull %14) #12
  br label %list_repr_impl.exit

.thread.i:                                        ; preds = %31, %28, %25, %._crit_edge.i, %16, %12
  tail call void @PyUnicodeWriter_Discard(ptr noundef %14) #12
  tail call void @Py_ReprLeave(ptr noundef nonnull %0) #12
  br label %list_repr_impl.exit

list_repr_impl.exit:                              ; preds = %.thread.i, %39, %10, %8, %4
  %.0 = phi ptr [ %5, %4 ], [ %11, %10 ], [ null, %8 ], [ null, %.thread.i ], [ %40, %39 ]
  ret ptr %.0
}